; Function Attrs: nounwind uwtable
define ptr @Gia_ManSimInfoTryOne(ptr noundef %0, ptr noundef %1, i32 noundef %2) local_unnamed_addr #0 {
  %4 = tail call ptr @Gia_ManSimulateWordsOut(ptr noundef %0, ptr noundef %1) #24
  %.not = icmp eq i32 %2, 0
  br i1 %.not, label %10, label %5

5:                                                ; preds = %3
  %6 = getelementptr i8, ptr %0, i64 64
  %.val9 = load ptr, ptr %6, align 8, !tbaa !49
  %7 = getelementptr i8, ptr %.val9, i64 4
  %.val9.val = load i32, ptr %7, align 4, !tbaa !13
  %8 = getelementptr i8, ptr %1, i64 4
  %.val = load i32, ptr %8, align 4, !tbaa !60
  %9 = sdiv i32 %.val, %.val9.val
  tail call void @Gia_ManSimInfoPrintOne(ptr noundef nonnull %0, ptr noundef nonnull %1, ptr noundef %4, i32 noundef %9, i32 noundef 6)
  br label %10

10:                                               ; preds = %5, %3
  ret ptr %4
}